; Function Attrs: nounwind uwtable
define hidden i32 @SDL_GetGamepadPowerInfo_REAL(ptr noundef %0, ptr noundef %1) local_unnamed_addr #0 {
  tail call void @SDL_LockJoysticks_REAL() #10
  %3 = tail call zeroext i1 @SDL_ObjectValid(ptr noundef %0, i32 noundef 5) #10
  br i1 %3, label %4, label %7

4:                                                ; preds = %2
  %5 = load ptr, ptr %0, align 8
  %6 = tail call zeroext i1 @SDL_IsJoystickValid(ptr noundef %5) #10
  br i1 %6, label %9, label %7

7:                                                ; preds = %4, %2
  %8 = tail call zeroext i1 (ptr, ...) @SDL_SetError_REAL(ptr noundef nonnull @.str.4, ptr noundef nonnull @.str.5) #10
  br label %SDL_GetGamepadJoystick_REAL.exit

9:                                                ; preds = %4
  %10 = load ptr, ptr %0, align 8
  br label %SDL_GetGamepadJoystick_REAL.exit

SDL_GetGamepadJoystick_REAL.exit:                 ; preds = %7, %9
  %.0.i = phi ptr [ %10, %9 ], [ null, %7 ]
  tail call void @SDL_UnlockJoysticks_REAL() #10
  %.not = icmp eq ptr %1, null
  br i1 %.not, label %12, label %11

11:                                               ; preds = %SDL_GetGamepadJoystick_REAL.exit
  store i32 -1, ptr %1, align 4
  br label %12

12:                                               ; preds = %11, %SDL_GetGamepadJoystick_REAL.exit
  %.not8 = icmp eq ptr %.0.i, null
  br i1 %.not8, label %15, label %13

13:                                               ; preds = %12
  %14 = tail call i32 @SDL_GetJoystickPowerInfo_REAL(ptr noundef nonnull %.0.i, ptr noundef %1) #10
  br label %15

15:                                               ; preds = %12, %13
  %.0 = phi i32 [ %14, %13 ], [ -1, %12 ]
  ret i32 %.0
}